target datalayout = "e-m:e-p270:32:32-p271:32:32-p272:64:64-i64:64-i128:128-f80:128-n8:16:32:64-S128"
target triple = "x86_64-pc-linux-gnu"

@s_GlobalFrame = internal global ptr null, align 8
@.str = private unnamed_addr constant [1 x i8] zeroinitializer, align 1
@.str.1 = private unnamed_addr constant [2 x i8] c"1\00", align 1

; Function Attrs: nounwind uwtable
define ptr @Abc_FrameReadFlag(ptr noundef %0) #0 {
  %2 = alloca ptr, align 8
  store ptr %0, ptr %2, align 8, !tbaa !38
  %3 = load ptr, ptr @s_GlobalFrame, align 8, !tbaa !3
  %4 = load ptr, ptr %2, align 8, !tbaa !38
  %5 = call ptr @Cmd_FlagReadByName(ptr noundef %3, ptr noundef %4)
  ret ptr %5
}

; Function Attrs: nounwind uwtable
define i32 @Abc_FrameIsFlagEnabled(ptr noundef %0) #0 {
  %2 = alloca i32, align 4
  %3 = alloca ptr, align 8
  %4 = alloca ptr, align 8
  %5 = alloca i32, align 4
  store ptr %0, ptr %3, align 8, !tbaa !38
  call void @llvm.lifetime.start.p0(i64 8, ptr %4) #10
  %6 = load ptr, ptr %3, align 8, !tbaa !38
  %7 = call ptr @Abc_FrameReadFlag(ptr noundef %6)
  store ptr %7, ptr %4, align 8, !tbaa !38
  %8 = load ptr, ptr %4, align 8, !tbaa !38
  %9 = icmp eq ptr %8, null
  br i1 %9, label %10, label %11

10:                                               ; preds = %1
  store i32 0, ptr %2, align 4
  store i32 1, ptr %5, align 4
  br label %21

11:                                               ; preds = %1
  %12 = load ptr, ptr %4, align 8, !tbaa !38
  %13 = call i32 @strcmp(ptr noundef %12, ptr noundef @.str) #11
  %14 = icmp ne i32 %13, 0
  br i1 %14, label %15, label %20

15:                                               ; preds = %11
  %16 = load ptr, ptr %4, align 8, !tbaa !38
  %17 = call i32 @strcmp(ptr noundef %16, ptr noundef @.str.1) #11
  %18 = icmp ne i32 %17, 0
  br i1 %18, label %19, label %20

19:                                               ; preds = %15
  store i32 0, ptr %2, align 4
  store i32 1, ptr %5, align 4
  br label %21

20:                                               ; preds = %15, %11
  store i32 1, ptr %2, align 4
  store i32 1, ptr %5, align 4
  br label %21

21:                                               ; preds = %20, %19, %10
  call void @llvm.lifetime.end.p0(i64 8, ptr %4) #10
  %22 = load i32, ptr %2, align 4
  ret i32 %22
}