; Function Attrs: nounwind uwtable
define range(i32 0, 2) i32 @Abc_FrameIsFlagEnabled(ptr noundef %0) local_unnamed_addr #1 {
  %2 = load ptr, ptr @s_GlobalFrame, align 8, !tbaa !3
  %3 = tail call ptr @Cmd_FlagReadByName(ptr noundef %2, ptr noundef %0) #20
  %4 = icmp eq ptr %3, null
  br i1 %4, label %.tail.thread, label %5

5:                                                ; preds = %1
  %strcmpload = load i8, ptr %3, align 1
  switch i8 %strcmpload, label %.tail.thread [
    i8 0, label %9
    i8 49, label %.tail
  ]

.tail:                                            ; preds = %5
  %6 = getelementptr inbounds nuw i8, ptr %3, i64 1
  %7 = load i8, ptr %6, align 1
  %8 = icmp eq i8 %7, 0
  br i1 %8, label %9, label %.tail.thread

9:                                                ; preds = %5, %.tail
  br label %.tail.thread

.tail.thread:                                     ; preds = %5, %.tail, %1, %9
  %.0 = phi i32 [ 1, %9 ], [ 0, %1 ], [ 0, %.tail ], [ 0, %5 ]
  ret i32 %.0
}